; Function Attrs: mustprogress uwtable
define noundef ptr @zmq_threadstart(ptr noundef %0, ptr noundef %1) local_unnamed_addr #0 personality ptr @__gxx_personality_v0 {
  %3 = tail call noalias noundef dereferenceable_or_null(104) ptr @_ZnwmRKSt9nothrow_t(i64 noundef 104, ptr noundef nonnull align 1 dereferenceable(1) @_ZSt7nothrow) #21
  %4 = icmp eq ptr %3, null
  br i1 %4, label %15, label %5

5:                                                ; preds = %2
  %6 = getelementptr inbounds nuw i8, ptr %3, i64 32
  store i8 0, ptr %6, align 8, !tbaa !11
  %7 = getelementptr inbounds nuw i8, ptr %3, i64 48
  tail call void @llvm.memset.p0.i64(ptr noundef nonnull align 8 dereferenceable(104) %3, i8 0, i64 16, i1 false)
  store i32 -1, ptr %7, align 8, !tbaa !24
  %8 = getelementptr inbounds nuw i8, ptr %3, i64 52
  store i32 -1, ptr %8, align 4, !tbaa !25
  %9 = getelementptr inbounds nuw i8, ptr %3, i64 64
  store i32 0, ptr %9, align 8, !tbaa !26
  %10 = getelementptr inbounds nuw i8, ptr %3, i64 72
  store ptr null, ptr %10, align 8, !tbaa !27
  %11 = getelementptr inbounds nuw i8, ptr %3, i64 80
  store ptr %9, ptr %11, align 8, !tbaa !28
  %12 = getelementptr inbounds nuw i8, ptr %3, i64 88
  store ptr %9, ptr %12, align 8, !tbaa !29
  %13 = getelementptr inbounds nuw i8, ptr %3, i64 96
  store i64 0, ptr %13, align 8, !tbaa !30
  %14 = getelementptr inbounds nuw i8, ptr %3, i64 16
  tail call void @llvm.memset.p0.i64(ptr noundef nonnull align 8 dereferenceable(16) %14, i8 0, i64 16, i1 false)
  br label %20

15:                                               ; preds = %2
  %16 = load ptr, ptr @stderr, align 8, !tbaa !4
  %17 = tail call i32 (ptr, ptr, ...) @fprintf(ptr noundef %16, ptr noundef nonnull @.str, ptr noundef nonnull @.str.1, i32 noundef 57) #19
  %18 = load ptr, ptr @stderr, align 8, !tbaa !4
  %19 = tail call i32 @fflush(ptr noundef %18)
  tail call void @_ZN3zmq9zmq_abortEPKc(ptr noundef nonnull @.str.2)
  br label %20

20:                                               ; preds = %5, %15
  tail call void @_ZN3zmq8thread_t5startEPFvPvES1_PKc(ptr noundef nonnull align 8 dereferenceable(104) %3, ptr noundef %0, ptr noundef %1, ptr noundef nonnull @.str.3)
  ret ptr %3
}